target datalayout = "e-m:e-p270:32:32-p271:32:32-p272:64:64-i64:64-i128:128-f80:128-n8:16:32:64-S128"
target triple = "x86_64-pc-linux-gnu"

%class.ParallelCompactData = type { ptr, ptr, i64, ptr, i64 }
%"class.ParallelCompactData::RegionData" = type <{ ptr, i64, ptr, i32, i32, i32, [4 x i8] }>

; Function Attrs: mustprogress nounwind uwtable
define linkonce_odr hidden noundef i64 @_Z13pointer_deltaPVKvS0_m(ptr noundef %0, ptr noundef %1, i64 noundef %2) #1 comdat {
  %4 = alloca ptr, align 8
  %5 = alloca ptr, align 8
  %6 = alloca i64, align 8
  store ptr %0, ptr %4, align 8
  store ptr %1, ptr %5, align 8
  store i64 %2, ptr %6, align 8
  %7 = load ptr, ptr %4, align 8
  %8 = ptrtoint ptr %7 to i64
  %9 = load ptr, ptr %5, align 8
  %10 = ptrtoint ptr %9 to i64
  %11 = sub i64 %8, %10
  %12 = load i64, ptr %6, align 8
  %13 = udiv i64 %11, %12
  ret i64 %13
}

; Function Attrs: mustprogress nounwind uwtable
define linkonce_odr hidden noundef i32 @_ZNK19ParallelCompactData10RegionData21destination_count_rawEv(ptr noundef nonnull align 8 dereferenceable(36) %0) #1 comdat align 2 {
  %2 = alloca ptr, align 8
  store ptr %0, ptr %2, align 8
  %3 = load ptr, ptr %2, align 8
  %4 = getelementptr inbounds %"class.ParallelCompactData::RegionData", ptr %3, i32 0, i32 4
  %5 = load volatile i32, ptr %4, align 4
  %6 = and i32 %5, -134217728
  ret i32 %6
}

; Function Attrs: mustprogress nounwind uwtable
define linkonce_odr hidden noundef i64 @_ZNK19ParallelCompactData10RegionData13live_obj_sizeEv(ptr noundef nonnull align 8 dereferenceable(36) %0) #1 comdat align 2 {
  %2 = alloca ptr, align 8
  store ptr %0, ptr %2, align 8
  %3 = load ptr, ptr %2, align 8
  %4 = getelementptr inbounds %"class.ParallelCompactData::RegionData", ptr %3, i32 0, i32 4
  %5 = load volatile i32, ptr %4, align 4
  %6 = and i32 %5, 134217727
  %7 = zext i32 %6 to i64
  ret i64 %7
}

; Function Attrs: mustprogress nounwind uwtable
define linkonce_odr hidden noundef i64 @_Z13pointer_deltaPKP12HeapWordImplS2_(ptr noundef %0, ptr noundef %1) #1 comdat {
  %3 = alloca ptr, align 8
  %4 = alloca ptr, align 8
  store ptr %0, ptr %3, align 8
  store ptr %1, ptr %4, align 8
  %5 = load ptr, ptr %3, align 8
  %6 = load ptr, ptr %4, align 8
  %7 = call noundef i64 @_Z13pointer_deltaPVKvS0_m(ptr noundef %5, ptr noundef %6, i64 noundef 8)
  ret i64 %7
}

; Function Attrs: mustprogress nounwind uwtable
define linkonce_odr hidden void @_ZN19ParallelCompactData10RegionData17set_live_obj_sizeEm(ptr noundef nonnull align 8 dereferenceable(36) %0, i64 noundef %1) #1 comdat align 2 {
  %3 = alloca ptr, align 8
  %4 = alloca i64, align 8
  store ptr %0, ptr %3, align 8
  store i64 %1, ptr %4, align 8
  %5 = load ptr, ptr %3, align 8
  %6 = call noundef i32 @_ZNK19ParallelCompactData10RegionData21destination_count_rawEv(ptr noundef nonnull align 8 dereferenceable(36) %5)
  %7 = load i64, ptr %4, align 8
  %8 = trunc i64 %7 to i32
  %9 = or i32 %6, %8
  %10 = getelementptr inbounds %"class.ParallelCompactData::RegionData", ptr %5, i32 0, i32 4
  store volatile i32 %9, ptr %10, align 4
  ret void
}

; Function Attrs: mustprogress nounwind uwtable
define linkonce_odr hidden noundef i64 @_ZNK19ParallelCompactData10RegionData16partial_obj_sizeEv(ptr noundef nonnull align 8 dereferenceable(36) %0) #1 comdat align 2 {
  %2 = alloca ptr, align 8
  store ptr %0, ptr %2, align 8
  %3 = load ptr, ptr %2, align 8
  %4 = getelementptr inbounds %"class.ParallelCompactData::RegionData", ptr %3, i32 0, i32 3
  %5 = load i32, ptr %4, align 8
  %6 = zext i32 %5 to i64
  ret i64 %6
}

; Function Attrs: mustprogress nounwind uwtable
define linkonce_odr hidden void @_ZN19ParallelCompactData10RegionData17set_source_regionEm(ptr noundef nonnull align 8 dereferenceable(36) %0, i64 noundef %1) #1 comdat align 2 {
  %3 = alloca ptr, align 8
  %4 = alloca i64, align 8
  store ptr %0, ptr %3, align 8
  store i64 %1, ptr %4, align 8
  %5 = load ptr, ptr %3, align 8
  %6 = load i64, ptr %4, align 8
  %7 = getelementptr inbounds %"class.ParallelCompactData::RegionData", ptr %5, i32 0, i32 1
  store i64 %6, ptr %7, align 8
  ret void
}

; Function Attrs: mustprogress nounwind uwtable
define linkonce_odr hidden void @_ZN19ParallelCompactData10RegionData21set_destination_countEj(ptr noundef nonnull align 8 dereferenceable(36) %0, i32 noundef %1) #1 comdat align 2 {
  %3 = alloca ptr, align 8
  %4 = alloca i32, align 4
  %5 = alloca i32, align 4
  store ptr %0, ptr %3, align 8
  store i32 %1, ptr %4, align 4
  %6 = load ptr, ptr %3, align 8
  %7 = call noundef i64 @_ZNK19ParallelCompactData10RegionData13live_obj_sizeEv(ptr noundef nonnull align 8 dereferenceable(36) %6)
  %8 = trunc i64 %7 to i32
  store i32 %8, ptr %5, align 4
  %9 = load i32, ptr %4, align 4
  %10 = shl i32 %9, 27
  %11 = load i32, ptr %5, align 4
  %12 = or i32 %10, %11
  %13 = getelementptr inbounds %"class.ParallelCompactData::RegionData", ptr %6, i32 0, i32 4
  store volatile i32 %12, ptr %13, align 4
  ret void
}

; Function Attrs: mustprogress nounwind uwtable
define linkonce_odr hidden void @_ZN19ParallelCompactData10RegionData15set_destinationEPP12HeapWordImpl(ptr noundef nonnull align 8 dereferenceable(36) %0, ptr noundef %1) #1 comdat align 2 {
  %3 = alloca ptr, align 8
  %4 = alloca ptr, align 8
  store ptr %0, ptr %3, align 8
  store ptr %1, ptr %4, align 8
  %5 = load ptr, ptr %3, align 8
  %6 = load ptr, ptr %4, align 8
  %7 = getelementptr inbounds %"class.ParallelCompactData::RegionData", ptr %5, i32 0, i32 0
  store ptr %6, ptr %7, align 8
  ret void
}

; Function Attrs: mustprogress nounwind uwtable
define linkonce_odr hidden noundef i64 @_ZNK19ParallelCompactData18addr_to_region_idxEPKP12HeapWordImpl(ptr noundef nonnull align 8 dereferenceable(40) %0, ptr noundef %1) #1 comdat align 2 {
  %3 = alloca ptr, align 8
  %4 = alloca ptr, align 8
  store ptr %0, ptr %3, align 8
  store ptr %1, ptr %4, align 8
  %5 = load ptr, ptr %3, align 8
  %6 = load ptr, ptr %4, align 8
  %7 = getelementptr inbounds %class.ParallelCompactData, ptr %5, i32 0, i32 0
  %8 = load ptr, ptr %7, align 8
  %9 = call noundef i64 @_Z13pointer_deltaPKP12HeapWordImplS2_(ptr noundef %6, ptr noundef %8)
  %10 = lshr i64 %9, 16
  ret i64 %10
}

; Function Attrs: mustprogress nounwind uwtable
define hidden void @_ZN19ParallelCompactData22summarize_dense_prefixEPP12HeapWordImplS2_(ptr noundef nonnull align 8 dereferenceable(40) %0, ptr noundef %1, ptr noundef %2) #1 align 2 {
  %4 = alloca ptr, align 8
  %5 = alloca ptr, align 8
  %6 = alloca ptr, align 8
  %7 = alloca i64, align 8
  %8 = alloca i64, align 8
  %9 = alloca ptr, align 8
  %10 = alloca i64, align 8
  store ptr %0, ptr %4, align 8
  store ptr %1, ptr %5, align 8
  store ptr %2, ptr %6, align 8
  %11 = load ptr, ptr %4, align 8
  %12 = load ptr, ptr %5, align 8
  %13 = call noundef i64 @_ZNK19ParallelCompactData18addr_to_region_idxEPKP12HeapWordImpl(ptr noundef nonnull align 8 dereferenceable(40) %11, ptr noundef %12)
  store i64 %13, ptr %7, align 8
  %14 = load ptr, ptr %6, align 8
  %15 = call noundef i64 @_ZNK19ParallelCompactData18addr_to_region_idxEPKP12HeapWordImpl(ptr noundef nonnull align 8 dereferenceable(40) %11, ptr noundef %14)
  store i64 %15, ptr %8, align 8
  %16 = load ptr, ptr %5, align 8
  store ptr %16, ptr %9, align 8
  br label %17

17:                                               ; preds = %21, %3
  %18 = load i64, ptr %7, align 8
  %19 = load i64, ptr %8, align 8
  %20 = icmp ult i64 %18, %19
  br i1 %20, label %21, label %51

21:                                               ; preds = %17
  %22 = getelementptr inbounds %class.ParallelCompactData, ptr %11, i32 0, i32 3
  %23 = load ptr, ptr %22, align 8
  %24 = load i64, ptr %7, align 8
  %25 = getelementptr inbounds %"class.ParallelCompactData::RegionData", ptr %23, i64 %24
  %26 = load ptr, ptr %9, align 8
  call void @_ZN19ParallelCompactData10RegionData15set_destinationEPP12HeapWordImpl(ptr noundef nonnull align 8 dereferenceable(36) %25, ptr noundef %26)
  %27 = getelementptr inbounds %class.ParallelCompactData, ptr %11, i32 0, i32 3
  %28 = load ptr, ptr %27, align 8
  %29 = load i64, ptr %7, align 8
  %30 = getelementptr inbounds %"class.ParallelCompactData::RegionData", ptr %28, i64 %29
  call void @_ZN19ParallelCompactData10RegionData21set_destination_countEj(ptr noundef nonnull align 8 dereferenceable(36) %30, i32 noundef 0)
  %31 = getelementptr inbounds %class.ParallelCompactData, ptr %11, i32 0, i32 3
  %32 = load ptr, ptr %31, align 8
  %33 = load i64, ptr %7, align 8
  %34 = getelementptr inbounds %"class.ParallelCompactData::RegionData", ptr %32, i64 %33
  %35 = load i64, ptr %7, align 8
  call void @_ZN19ParallelCompactData10RegionData17set_source_regionEm(ptr noundef nonnull align 8 dereferenceable(36) %34, i64 noundef %35)
  %36 = getelementptr inbounds %class.ParallelCompactData, ptr %11, i32 0, i32 3
  %37 = load ptr, ptr %36, align 8
  %38 = load i64, ptr %7, align 8
  %39 = getelementptr inbounds %"class.ParallelCompactData::RegionData", ptr %37, i64 %38
  %40 = call noundef i64 @_ZNK19ParallelCompactData10RegionData16partial_obj_sizeEv(ptr noundef nonnull align 8 dereferenceable(36) %39)
  %41 = sub i64 65536, %40
  store i64 %41, ptr %10, align 8
  %42 = getelementptr inbounds %class.ParallelCompactData, ptr %11, i32 0, i32 3
  %43 = load ptr, ptr %42, align 8
  %44 = load i64, ptr %7, align 8
  %45 = getelementptr inbounds %"class.ParallelCompactData::RegionData", ptr %43, i64 %44
  %46 = load i64, ptr %10, align 8
  call void @_ZN19ParallelCompactData10RegionData17set_live_obj_sizeEm(ptr noundef nonnull align 8 dereferenceable(36) %45, i64 noundef %46)
  %47 = load i64, ptr %7, align 8
  %48 = add i64 %47, 1
  store i64 %48, ptr %7, align 8
  %49 = load ptr, ptr %9, align 8
  %50 = getelementptr inbounds ptr, ptr %49, i64 65536
  store ptr %50, ptr %9, align 8
  br label %17, !llvm.loop !8

51:                                               ; preds = %17
  ret void
}