; Function Attrs: mustprogress nofree norecurse nounwind uwtable
define hidden void @_ZN19ParallelCompactData22summarize_dense_prefixEPP12HeapWordImplS2_(ptr nocapture noundef nonnull readonly align 8 dereferenceable(40) %0, ptr noundef %1, ptr noundef %2) local_unnamed_addr #8 align 2 {
  %4 = load ptr, ptr %0, align 8
  %5 = ptrtoint ptr %1 to i64
  %6 = ptrtoint ptr %4 to i64
  %7 = sub i64 %5, %6
  %8 = lshr i64 %7, 19
  %9 = ptrtoint ptr %2 to i64
  %10 = sub i64 %9, %6
  %11 = lshr i64 %10, 19
  %12 = icmp ult i64 %8, %11
  br i1 %12, label %.lr.ph, label %._crit_edge

.lr.ph:                                           ; preds = %3
  %13 = getelementptr inbounds i8, ptr %0, i64 24
  br label %14

14:                                               ; preds = %.lr.ph, %14
  %.017 = phi i64 [ %8, %.lr.ph ], [ %32, %14 ]
  %.01516 = phi ptr [ %1, %.lr.ph ], [ %33, %14 ]
  %15 = load ptr, ptr %13, align 8
  %16 = getelementptr inbounds %"class.ParallelCompactData::RegionData", ptr %15, i64 %.017
  store ptr %.01516, ptr %16, align 8
  %17 = load ptr, ptr %13, align 8
  %18 = getelementptr inbounds %"class.ParallelCompactData::RegionData", ptr %17, i64 %.017, i32 4
  %19 = load volatile i32, ptr %18, align 4
  %20 = and i32 %19, 134217727
  store volatile i32 %20, ptr %18, align 4
  %21 = load ptr, ptr %13, align 8
  %22 = getelementptr inbounds %"class.ParallelCompactData::RegionData", ptr %21, i64 %.017, i32 1
  store i64 %.017, ptr %22, align 8
  %23 = load ptr, ptr %13, align 8
  %24 = getelementptr inbounds %"class.ParallelCompactData::RegionData", ptr %23, i64 %.017
  %25 = getelementptr inbounds i8, ptr %24, i64 24
  %26 = load i32, ptr %25, align 8
  %27 = sub i32 65536, %26
  %28 = getelementptr inbounds i8, ptr %24, i64 28
  %29 = load volatile i32, ptr %28, align 4
  %30 = and i32 %29, -134217728
  %31 = or i32 %30, %27
  store volatile i32 %31, ptr %28, align 4
  %32 = add nuw nsw i64 %.017, 1
  %33 = getelementptr inbounds i8, ptr %.01516, i64 524288
  %exitcond.not = icmp eq i64 %32, %11
  br i1 %exitcond.not, label %._crit_edge, label %14, !llvm.loop !10

._crit_edge:                                      ; preds = %14, %3
  ret void
}